; Function Attrs: mustprogress uwtable
define hidden noundef nonnull align 8 dereferenceable(184) ptr @_ZNK3sls7bv_eval4evalEP3app(ptr noundef nonnull align 8 dereferenceable(865) %0, ptr noundef %1) local_unnamed_addr #3 align 2 {
  %3 = getelementptr inbounds nuw i8, ptr %0, i64 544
  %4 = load i32, ptr %1, align 4, !tbaa !124
  %5 = load ptr, ptr %3, align 8, !tbaa !125
  %6 = zext i32 %4 to i64
  %7 = getelementptr inbounds nuw ptr, ptr %5, i64 %6
  %8 = load ptr, ptr %7, align 8, !tbaa !126
  tail call void @_ZNK3sls7bv_eval4evalEP4exprRNS_12bv_valuationE(ptr noundef nonnull align 8 dereferenceable(865) %0, ptr noundef nonnull %1, ptr noundef nonnull align 8 dereferenceable(184) %8)
  ret ptr %8
}